; Function Attrs: mustprogress uwtable
define void @_ZN5faiss22IndexResidualQuantizerC2EiRKSt6vectorImSaImEENS_10MetricTypeENS_17AdditiveQuantizer13Search_type_tE(ptr noundef nonnull align 8 dereferenceable(512) %0, i32 noundef %1, ptr noundef nonnull align 8 dereferenceable(24) %2, i32 noundef %3, i32 noundef %4) unnamed_addr #2 align 2 personality ptr @__gxx_personality_v0 {
  store ptr getelementptr inbounds ({ [25 x ptr] }, ptr @_ZTVN5faiss22IndexResidualQuantizerE, i64 0, i32 0, i64 2), ptr %0, align 8
  %6 = sext i32 %1 to i64
  %7 = getelementptr inbounds i8, ptr %0, i64 80
  tail call void @_ZN5faiss22IndexAdditiveQuantizerC2ElPNS_17AdditiveQuantizerENS_10MetricTypeE(ptr noundef nonnull align 8 dereferenceable(80) %0, i64 noundef %6, ptr noundef nonnull %7, i32 noundef %3)
  store ptr getelementptr inbounds ({ [25 x ptr] }, ptr @_ZTVN5faiss22IndexResidualQuantizerE, i64 0, i32 0, i64 2), ptr %0, align 8
  invoke void @_ZN5faiss17ResidualQuantizerC1EmRKSt6vectorImSaImEENS_17AdditiveQuantizer13Search_type_tE(ptr noundef nonnull align 8 dereferenceable(432) %7, i64 noundef %6, ptr noundef nonnull align 8 dereferenceable(24) %2, i32 noundef %4)
          to label %8 unwind label %13

8:                                                ; preds = %5
  %9 = getelementptr inbounds i8, ptr %0, i64 96
  %10 = load i64, ptr %9, align 8
  %11 = getelementptr inbounds i8, ptr %0, i64 40
  store i64 %10, ptr %11, align 8
  %12 = getelementptr inbounds i8, ptr %0, i64 25
  store i8 0, ptr %12, align 1
  ret void

13:                                               ; preds = %5
  %14 = landingpad { ptr, i32 }
          cleanup
  tail call void @_ZN5faiss22IndexAdditiveQuantizerD2Ev(ptr noundef nonnull align 8 dereferenceable(80) %0) #14
  resume { ptr, i32 } %14
}